target datalayout = "e-m:e-p270:32:32-p271:32:32-p272:64:64-i64:64-i128:128-f80:128-n8:16:32:64-S128"
target triple = "x86_64-pc-linux-gnu"

%struct.APEContext = type { ptr, ptr, %struct.BswapDSPContext, %struct.LLAudDSPContext, i32, i32, i32, i32, i32, i32, i32, i32, i32, i32, %struct.APEPredictor, %struct.APEPredictor64, ptr, i32, [2 x ptr], ptr, i32, [2 x ptr], i32, [3 x ptr], %struct.APERangecoder, %struct.APERice, %struct.APERice, [3 x [2 x %struct.APEFilter]], %struct.GetBitContext, ptr, ptr, i32, ptr, i32, i32, ptr, ptr, ptr, ptr }
%struct.BswapDSPContext = type { ptr, ptr }
%struct.LLAudDSPContext = type { ptr, ptr }
%struct.APEPredictor = type { ptr, [2 x i32], [2 x i32], [2 x i32], [2 x [4 x i32]], [2 x [5 x i32]], [562 x i32], i32 }
%struct.APEPredictor64 = type { ptr, [2 x i64], [2 x i64], [2 x i64], [2 x [4 x i64]], [2 x [5 x i64]], [562 x i64] }
%struct.APERangecoder = type { i32, i32, i32, i32 }
%struct.APERice = type { i32, i32 }
%struct.APEFilter = type { ptr, ptr, ptr, ptr, i32 }
%struct.GetBitContext = type { ptr, ptr, i32, i32, i32 }

; Function Attrs: nounwind uwtable
define internal void @entropy_decode_stereo_3990(ptr noundef %0, i32 noundef %1) #1 {
  %3 = alloca ptr, align 8
  %4 = alloca i32, align 4
  %5 = alloca ptr, align 8
  %6 = alloca ptr, align 8
  store ptr %0, ptr %3, align 8, !tbaa !29
  store i32 %1, ptr %4, align 4, !tbaa !32
  call void @llvm.lifetime.start.p0(i64 8, ptr %5) #11
  %7 = load ptr, ptr %3, align 8, !tbaa !29
  %8 = getelementptr inbounds nuw %struct.APEContext, ptr %7, i32 0, i32 18
  %9 = getelementptr inbounds [2 x ptr], ptr %8, i64 0, i64 0
  %10 = load ptr, ptr %9, align 8, !tbaa !72
  store ptr %10, ptr %5, align 8, !tbaa !72
  call void @llvm.lifetime.start.p0(i64 8, ptr %6) #11
  %11 = load ptr, ptr %3, align 8, !tbaa !29
  %12 = getelementptr inbounds nuw %struct.APEContext, ptr %11, i32 0, i32 18
  %13 = getelementptr inbounds [2 x ptr], ptr %12, i64 0, i64 1
  %14 = load ptr, ptr %13, align 8, !tbaa !72
  store ptr %14, ptr %6, align 8, !tbaa !72
  br label %15

15:                                               ; preds = %19, %2
  %16 = load i32, ptr %4, align 4, !tbaa !32
  %17 = add nsw i32 %16, -1
  store i32 %17, ptr %4, align 4, !tbaa !32
  %18 = icmp ne i32 %16, 0
  br i1 %18, label %19, label %32

19:                                               ; preds = %15
  %20 = load ptr, ptr %3, align 8, !tbaa !29
  %21 = load ptr, ptr %3, align 8, !tbaa !29
  %22 = getelementptr inbounds nuw %struct.APEContext, ptr %21, i32 0, i32 26
  %23 = call i32 @ape_decode_value_3990(ptr noundef %20, ptr noundef %22)
  %24 = load ptr, ptr %5, align 8, !tbaa !72
  %25 = getelementptr inbounds nuw i32, ptr %24, i32 1
  store ptr %25, ptr %5, align 8, !tbaa !72
  store i32 %23, ptr %24, align 4, !tbaa !32
  %26 = load ptr, ptr %3, align 8, !tbaa !29
  %27 = load ptr, ptr %3, align 8, !tbaa !29
  %28 = getelementptr inbounds nuw %struct.APEContext, ptr %27, i32 0, i32 25
  %29 = call i32 @ape_decode_value_3990(ptr noundef %26, ptr noundef %28)
  %30 = load ptr, ptr %6, align 8, !tbaa !72
  %31 = getelementptr inbounds nuw i32, ptr %30, i32 1
  store ptr %31, ptr %6, align 8, !tbaa !72
  store i32 %29, ptr %30, align 4, !tbaa !32
  br label %15, !llvm.loop !118

32:                                               ; preds = %15
  call void @llvm.lifetime.end.p0(i64 8, ptr %6) #11
  call void @llvm.lifetime.end.p0(i64 8, ptr %5) #11
  ret void
}