; Function Attrs: nofree norecurse nosync nounwind memory(readwrite, inaccessiblemem: none) uwtable
define internal void @entropy_decode_stereo_3990(ptr noundef %0, i32 noundef %1) #5 {
  %.not10 = icmp eq i32 %1, 0
  br i1 %.not10, label %._crit_edge, label %.lr.ph

.lr.ph:                                           ; preds = %2
  %3 = getelementptr inbounds nuw i8, ptr %0, i64 7168
  %4 = load ptr, ptr %3, align 8, !tbaa !85
  %5 = getelementptr inbounds nuw i8, ptr %0, i64 7160
  %6 = load ptr, ptr %5, align 8, !tbaa !85
  %7 = getelementptr inbounds nuw i8, ptr %0, i64 7264
  %8 = getelementptr inbounds nuw i8, ptr %0, i64 7256
  br label %9

9:                                                ; preds = %.lr.ph, %9
  %.013 = phi ptr [ %4, %.lr.ph ], [ %14, %9 ]
  %.0812 = phi ptr [ %6, %.lr.ph ], [ %12, %9 ]
  %.0911 = phi i32 [ %1, %.lr.ph ], [ %10, %9 ]
  %10 = add nsw i32 %.0911, -1
  %11 = tail call fastcc i32 @ape_decode_value_3990(ptr noundef nonnull %0, ptr noundef nonnull %7)
  %12 = getelementptr inbounds nuw i8, ptr %.0812, i64 4
  store i32 %11, ptr %.0812, align 4, !tbaa !61
  %13 = tail call fastcc i32 @ape_decode_value_3990(ptr noundef nonnull %0, ptr noundef nonnull %8)
  %14 = getelementptr inbounds nuw i8, ptr %.013, i64 4
  store i32 %13, ptr %.013, align 4, !tbaa !61
  %.not = icmp eq i32 %10, 0
  br i1 %.not, label %._crit_edge, label %9, !llvm.loop !116

._crit_edge:                                      ; preds = %9, %2
  ret void
}